target datalayout = "e-m:e-p270:32:32-p271:32:32-p272:64:64-i64:64-i128:128-f80:128-n8:16:32:64-S128"
target triple = "x86_64-pc-linux-gnu"

; Function Attrs: mustprogress nounwind uwtable
define void @_ZN3net20SpdyAltSvcWireFormat14SkipWhiteSpaceEPPKcS2_(ptr noundef %0, ptr noundef %1) #0 align 2 {
  %3 = alloca ptr, align 8
  %4 = alloca ptr, align 8
  store ptr %0, ptr %3, align 8, !tbaa !59
  store ptr %1, ptr %4, align 8, !tbaa !32
  br label %5

5:                                                ; preds = %27, %2
  %6 = load ptr, ptr %3, align 8, !tbaa !59
  %7 = load ptr, ptr %6, align 8, !tbaa !32
  %8 = load ptr, ptr %4, align 8, !tbaa !32
  %9 = icmp ne ptr %7, %8
  br i1 %9, label %10, label %24

10:                                               ; preds = %5
  %11 = load ptr, ptr %3, align 8, !tbaa !59
  %12 = load ptr, ptr %11, align 8, !tbaa !32
  %13 = load i8, ptr %12, align 1, !tbaa !33
  %14 = sext i8 %13 to i32
  %15 = icmp eq i32 %14, 32
  br i1 %15, label %22, label %16

16:                                               ; preds = %10
  %17 = load ptr, ptr %3, align 8, !tbaa !59
  %18 = load ptr, ptr %17, align 8, !tbaa !32
  %19 = load i8, ptr %18, align 1, !tbaa !33
  %20 = sext i8 %19 to i32
  %21 = icmp eq i32 %20, 9
  br label %22

22:                                               ; preds = %16, %10
  %23 = phi i1 [ true, %10 ], [ %21, %16 ]
  br label %24

24:                                               ; preds = %22, %5
  %25 = phi i1 [ false, %5 ], [ %23, %22 ]
  br i1 %25, label %26, label %31

26:                                               ; preds = %24
  br label %27

27:                                               ; preds = %26
  %28 = load ptr, ptr %3, align 8, !tbaa !59
  %29 = load ptr, ptr %28, align 8, !tbaa !32
  %30 = getelementptr inbounds nuw i8, ptr %29, i32 1
  store ptr %30, ptr %28, align 8, !tbaa !32
  br label %5, !llvm.loop !61

31:                                               ; preds = %24
  ret void
}