; Function Attrs: mustprogress nofree norecurse nosync nounwind memory(read, argmem: readwrite, inaccessiblemem: none) uwtable
define void @_ZN3net20SpdyAltSvcWireFormat14SkipWhiteSpaceEPPKcS2_(ptr noundef captures(none) %0, ptr noundef readnone captures(address) %1) local_unnamed_addr #7 align 2 {
  %.promoted = load ptr, ptr %0, align 8, !tbaa !55
  %.not8 = icmp eq ptr %.promoted, %1
  br i1 %.not8, label %.critedge, label %.lr.ph

.lr.ph:                                           ; preds = %2, %.critedge2
  %3 = phi ptr [ %5, %.critedge2 ], [ %.promoted, %2 ]
  %4 = load i8, ptr %3, align 1, !tbaa !12
  switch i8 %4, label %.critedge [
    i8 32, label %.critedge2
    i8 9, label %.critedge2
  ]

.critedge2:                                       ; preds = %.lr.ph, %.lr.ph
  %5 = getelementptr inbounds nuw i8, ptr %3, i64 1
  store ptr %5, ptr %0, align 8, !tbaa !55
  %.not = icmp eq ptr %5, %1
  br i1 %.not, label %.critedge, label %.lr.ph, !llvm.loop !42

.critedge:                                        ; preds = %.critedge2, %.lr.ph, %2
  ret void
}